(ikeras_frcnn.config
Config
p0
(dp1
S'use_vertical_flips'
p2
I00
sS'epoch_length'
p3
I600
sS'verbose'
p4
I01
sS'classifier_regr_std'
p5
(lp6
F8.0
aF8.0
aF4.0
aF4.0
asS'classifier_min_overlap'
p7
F0.1
sS'rot_90'
p8
I00
sS'class_mapping'
p9
(dp10
S'1'
p11
I0
sS'bg'
p12
I1
ssS'use_horizontal_flips'
p13
I00
sS'rpn_max_overlap'
p14
F0.7
sS'network'
p15
S'fcnet'
p16
sS'img_channel_mean'
p17
(lp18
F103.939
aF116.779
aF123.68
asS'balanced_classes'
p19
I00
sS'anchor_box_ratios'
p20
(lp21
(lp22
I1
aI1
aa(lp23
I1
aI2
aa(lp24
I2
aI1
aasS'num_features'
p25
I64
sS'img_scaling_factor'
p26
F1.0
sS'rpn_stride'
p27
I4
sS'num_rois'
p28
I32
sS'base_net_weights'
p29
S''
p30
sS'anchor_box_scales'
p31
(lp32
I8
aI16
aI32
aI64
asS'rpn_min_overlap'
p33
F0.3
sS'model_path'
p34
S'model_frcnn_fcnet.hdf5'
p35
sS'classifier_max_overlap'
p36
F0.5
sS'std_scaling'
p37
F4.0
sS'im_size'
p38
I600
sb.