(ikeras_frcnn.config
Config
p0
(dp1
S'use_vertical_flips'
p2
I01
sS'epoch_length'
p3
I600
sS'verbose'
p4
I01
sS'classifier_regr_std'
p5
(lp6
F8.0
aF8.0
aF4.0
aF4.0
asS'classifier_min_overlap'
p7
F0.1
sS'rot_90'
p8
I01
sS'class_mapping'
p9
(dp10
S'1'
p11
I0
sS'bg'
p12
I1
ssS'use_horizontal_flips'
p13
I01
sS'rpn_max_overlap'
p14
F0.7
sS'network'
p15
S'vgg'
p16
sS'img_channel_mean'
p17
(lp18
F103.939
aF116.779
aF123.68
asS'trainable_base_layer'
p19
I00
sS'balanced_classes'
p20
I00
sS'anchor_box_ratios'
p21
(lp22
(lp23
I1
aI1
aa(lp24
I1
aI2
aa(lp25
I2
aI1
aasS'num_features'
p26
I512
sS'img_scaling_factor'
p27
F1.0
sS'rpn_stride'
p28
I8
sS'num_rois'
p29
I32
sS'base_net_weights'
p30
S'vgg16_weights_tf_dim_ordering_tf_kernels.h5'
p31
sS'anchor_box_scales'
p32
(lp33
I8
aI16
aI32
aI64
asS'rpn_min_overlap'
p34
F0.3
sS'model_path'
p35
S'model_frcnn_vgg.hdf5'
p36
sS'classifier_max_overlap'
p37
F0.5
sS'std_scaling'
p38
F4.0
sS'im_size'
p39
I600
sb.